target datalayout = "e-m:e-p270:32:32-p271:32:32-p272:64:64-i64:64-i128:128-f80:128-n8:16:32:64-S128"
target triple = "x86_64-pc-linux-gnu"

%struct.mbedtls_asn1_sequence = type { %struct.mbedtls_asn1_buf, ptr }
%struct.mbedtls_asn1_buf = type { i32, i64, ptr }

; Function Attrs: nounwind uwtable
define hidden void @mbedtls_asn1_sequence_free(ptr noundef %0) #0 {
  %2 = alloca ptr, align 8
  %3 = alloca ptr, align 8
  store ptr %0, ptr %2, align 8, !tbaa !34
  br label %4

4:                                                ; preds = %7, %1
  %5 = load ptr, ptr %2, align 8, !tbaa !34
  %6 = icmp ne ptr %5, null
  br i1 %6, label %7, label %13

7:                                                ; preds = %4
  call void @llvm.lifetime.start.p0(i64 8, ptr %3) #7
  %8 = load ptr, ptr %2, align 8, !tbaa !34
  %9 = getelementptr inbounds nuw %struct.mbedtls_asn1_sequence, ptr %8, i32 0, i32 1
  %10 = load ptr, ptr %9, align 8, !tbaa !36
  store ptr %10, ptr %3, align 8, !tbaa !34
  %11 = load ptr, ptr %2, align 8, !tbaa !34
  call void @free(ptr noundef %11) #7
  %12 = load ptr, ptr %3, align 8, !tbaa !34
  store ptr %12, ptr %2, align 8, !tbaa !34
  call void @llvm.lifetime.end.p0(i64 8, ptr %3) #7
  br label %4, !llvm.loop !39

13:                                               ; preds = %4
  ret void
}